target datalayout = "e-m:e-p270:32:32-p271:32:32-p272:64:64-i64:64-i128:128-f80:128-n8:16:32:64-S128"
target triple = "x86_64-pc-linux-gnu"

%struct.settings = type { i64, i32, i32, i32, ptr, i32, i32, i32, ptr, ptr, i32, double, i32, i32, i32, i8, i32, i32, i8, i32, i32, i32, i32, i32, i32, i8, i8, i8, i8, i8, i8, i8, i32, i32, double, double, i32, i32, i8, i32, i8, i8, ptr, i32, i32, i32, i32, double, double, i32, i8, i32, i32, i32, i32, i32, i8, i8, i8, ptr, i32, i32, i32, i32, i32, i32, i32, i32, i32, i32, double, i8, i32, i32, ptr, i32 }
%struct.conn = type { ptr, i32, i8, i8, i8, i8, i8, i8, i8, i8, ptr, i32, i32, i32, %struct.event, i16, i16, ptr, ptr, i32, i32, ptr, ptr, ptr, i32, ptr, i32, i32, i32, i32, i32, i32, i32, %struct.sockaddr_in6, i32, i8, %struct.anon.8, %union.protocol_binary_request_header, i64, i64, i16, i32, i32, ptr, ptr, ptr, ptr, ptr, ptr }
%struct.event = type { %struct.event_callback, %union.anon.0, i32, ptr, %union.anon.2, i16, i16, %struct.timeval }
%struct.event_callback = type { %struct.anon, i16, i8, i8, %union.anon, ptr }
%struct.anon = type { ptr, ptr }
%union.anon = type { ptr }
%union.anon.0 = type { %struct.anon.1 }
%struct.anon.1 = type { ptr, ptr }
%union.anon.2 = type { %struct.anon.3 }
%struct.anon.3 = type { %struct.anon.4, %struct.timeval }
%struct.anon.4 = type { ptr, ptr }
%struct.timeval = type { i64, i64 }
%struct.sockaddr_in6 = type { i16, i16, i32, %struct.in6_addr, i32 }
%struct.in6_addr = type { %union.anon.7 }
%union.anon.7 = type { [4 x i32] }
%struct.anon.8 = type { ptr, i64, i64 }
%union.protocol_binary_request_header = type { %struct.anon.9 }
%struct.anon.9 = type { i8, i8, i16, i8, i8, i16, i32, i32, i64 }
%struct.token_s = type { ptr, i64 }

@settings = external global %struct.settings, align 8
@stderr = external global ptr, align 8
@.str.15 = private unnamed_addr constant [6 x i8] c"ERROR\00", align 1
@.str.85 = private unnamed_addr constant [8 x i8] c"noreply\00", align 1
@.str.98 = private unnamed_addr constant [3 x i8] c"OK\00", align 1
@.str.115 = private unnamed_addr constant [55 x i8] c"MEMLIMIT_TOO_SMALL cannot set maxbytes to less than 8m\00", align 1
@.str.116 = private unnamed_addr constant [58 x i8] c"MEMLIMIT_ADJUST_FAILED input value is megabytes not bytes\00", align 1
@.str.117 = private unnamed_addr constant [28 x i8] c"maxbytes adjusted to %llum\0A\00", align 1
@.str.118 = private unnamed_addr constant [57 x i8] c"MEMLIMIT_ADJUST_FAILED out of bounds or unable to adjust\00", align 1

; Function Attrs: inlinehint nounwind uwtable
define internal zeroext i1 @set_noreply_maybe(ptr noundef %0, ptr noundef %1, i64 noundef %2) #5 {
  %4 = alloca ptr, align 8
  %5 = alloca ptr, align 8
  %6 = alloca i64, align 8
  %7 = alloca i32, align 4
  store ptr %0, ptr %4, align 8, !tbaa !4
  store ptr %1, ptr %5, align 8, !tbaa !77
  store i64 %2, ptr %6, align 8, !tbaa !44
  call void @llvm.lifetime.start.p0(i64 4, ptr %7) #8
  %8 = load i64, ptr %6, align 8, !tbaa !44
  %9 = sub i64 %8, 2
  %10 = trunc i64 %9 to i32
  store i32 %10, ptr %7, align 4, !tbaa !30
  %11 = load ptr, ptr %5, align 8, !tbaa !77
  %12 = load i32, ptr %7, align 4, !tbaa !30
  %13 = sext i32 %12 to i64
  %14 = getelementptr inbounds %struct.token_s, ptr %11, i64 %13
  %15 = getelementptr inbounds nuw %struct.token_s, ptr %14, i32 0, i32 0
  %16 = load ptr, ptr %15, align 8, !tbaa !70
  %17 = icmp ne ptr %16, null
  br i1 %17, label %18, label %30

18:                                               ; preds = %3
  %19 = load ptr, ptr %5, align 8, !tbaa !77
  %20 = load i32, ptr %7, align 4, !tbaa !30
  %21 = sext i32 %20 to i64
  %22 = getelementptr inbounds %struct.token_s, ptr %19, i64 %21
  %23 = getelementptr inbounds nuw %struct.token_s, ptr %22, i32 0, i32 0
  %24 = load ptr, ptr %23, align 8, !tbaa !70
  %25 = call i32 @strcmp(ptr noundef %24, ptr noundef @.str.85) #9
  %26 = icmp eq i32 %25, 0
  br i1 %26, label %27, label %30

27:                                               ; preds = %18
  %28 = load ptr, ptr %4, align 8, !tbaa !4
  %29 = getelementptr inbounds nuw %struct.conn, ptr %28, i32 0, i32 35
  store i8 1, ptr %29, align 4, !tbaa !43
  br label %30

30:                                               ; preds = %27, %18, %3
  %31 = load ptr, ptr %4, align 8, !tbaa !4
  %32 = getelementptr inbounds nuw %struct.conn, ptr %31, i32 0, i32 35
  %33 = load i8, ptr %32, align 4, !tbaa !43, !range !40, !noundef !41
  %34 = trunc i8 %33 to i1
  call void @llvm.lifetime.end.p0(i64 4, ptr %7) #8
  ret i1 %34
}

; Function Attrs: nounwind uwtable
define internal void @process_memlimit_command(ptr noundef %0, ptr noundef %1, i64 noundef %2) #0 {
  %4 = alloca ptr, align 8
  %5 = alloca ptr, align 8
  %6 = alloca i64, align 8
  %7 = alloca i32, align 4
  store ptr %0, ptr %4, align 8, !tbaa !4
  store ptr %1, ptr %5, align 8, !tbaa !77
  store i64 %2, ptr %6, align 8, !tbaa !44
  call void @llvm.lifetime.start.p0(i64 4, ptr %7) #8
  %8 = load ptr, ptr %4, align 8, !tbaa !4
  %9 = load ptr, ptr %5, align 8, !tbaa !77
  %10 = load i64, ptr %6, align 8, !tbaa !44
  %11 = call zeroext i1 @set_noreply_maybe(ptr noundef %8, ptr noundef %9, i64 noundef %10)
  %12 = load ptr, ptr %5, align 8, !tbaa !77
  %13 = getelementptr inbounds %struct.token_s, ptr %12, i64 1
  %14 = getelementptr inbounds nuw %struct.token_s, ptr %13, i32 0, i32 0
  %15 = load ptr, ptr %14, align 8, !tbaa !70
  %16 = call zeroext i1 @safe_strtoul(ptr noundef %15, ptr noundef %7)
  br i1 %16, label %19, label %17

17:                                               ; preds = %3
  %18 = load ptr, ptr %4, align 8, !tbaa !4
  call void @out_string(ptr noundef %18, ptr noundef @.str.15)
  br label %50

19:                                               ; preds = %3
  %20 = load i32, ptr %7, align 4, !tbaa !30
  %21 = icmp ult i32 %20, 8
  br i1 %21, label %22, label %24

22:                                               ; preds = %19
  %23 = load ptr, ptr %4, align 8, !tbaa !4
  call void @out_string(ptr noundef %23, ptr noundef @.str.115)
  br label %49

24:                                               ; preds = %19
  %25 = load i32, ptr %7, align 4, !tbaa !30
  %26 = icmp ugt i32 %25, 1000000000
  br i1 %26, label %27, label %29

27:                                               ; preds = %24
  %28 = load ptr, ptr %4, align 8, !tbaa !4
  call void @out_string(ptr noundef %28, ptr noundef @.str.116)
  br label %48

29:                                               ; preds = %24
  %30 = load i32, ptr %7, align 4, !tbaa !30
  %31 = zext i32 %30 to i64
  %32 = mul i64 %31, 1024
  %33 = mul i64 %32, 1024
  %34 = call zeroext i1 @slabs_adjust_mem_limit(i64 noundef %33)
  br i1 %34, label %35, label %45

35:                                               ; preds = %29
  %36 = load i32, ptr getelementptr inbounds nuw (%struct.settings, ptr @settings, i32 0, i32 5), align 8, !tbaa !84
  %37 = icmp sgt i32 %36, 0
  br i1 %37, label %38, label %43

38:                                               ; preds = %35
  %39 = load ptr, ptr @stderr, align 8, !tbaa !88
  %40 = load i32, ptr %7, align 4, !tbaa !30
  %41 = zext i32 %40 to i64
  %42 = call i32 (ptr, ptr, ...) @fprintf(ptr noundef %39, ptr noundef @.str.117, i64 noundef %41) #8
  br label %43

43:                                               ; preds = %38, %35
  %44 = load ptr, ptr %4, align 8, !tbaa !4
  call void @out_string(ptr noundef %44, ptr noundef @.str.98)
  br label %47

45:                                               ; preds = %29
  %46 = load ptr, ptr %4, align 8, !tbaa !4
  call void @out_string(ptr noundef %46, ptr noundef @.str.118)
  br label %47

47:                                               ; preds = %45, %43
  br label %48

48:                                               ; preds = %47, %27
  br label %49

49:                                               ; preds = %48, %22
  br label %50

50:                                               ; preds = %49, %17
  call void @llvm.lifetime.end.p0(i64 4, ptr %7) #8
  ret void
}