; Function Attrs: nounwind uwtable
define internal fastcc void @process_memlimit_command(ptr noundef %0, ptr noundef nonnull readonly captures(none) %1, i64 noundef range(i64 2, 0) %2) unnamed_addr #0 {
  %4 = alloca i32, align 4
  call void @llvm.lifetime.start.p0(i64 4, ptr nonnull %4) #13
  %5 = shl i64 %2, 32
  %sext.i = add i64 %5, -8589934592
  %6 = ashr exact i64 %sext.i, 28
  %7 = getelementptr inbounds i8, ptr %1, i64 %6
  %8 = load ptr, ptr %7, align 8, !tbaa !66
  %.not.i = icmp eq ptr %8, null
  br i1 %.not.i, label %set_noreply_maybe.exit, label %9

9:                                                ; preds = %3
  %10 = tail call i32 @strcmp(ptr noundef nonnull dereferenceable(1) %8, ptr noundef nonnull dereferenceable(8) @.str.85) #14
  %11 = icmp eq i32 %10, 0
  br i1 %11, label %12, label %set_noreply_maybe.exit

12:                                               ; preds = %9
  %13 = getelementptr inbounds nuw i8, ptr %0, i64 308
  store i8 1, ptr %13, align 4, !tbaa !39
  br label %set_noreply_maybe.exit

set_noreply_maybe.exit:                           ; preds = %3, %9, %12
  %14 = getelementptr inbounds nuw i8, ptr %1, i64 16
  %15 = load ptr, ptr %14, align 8, !tbaa !66
  %16 = call zeroext i1 @safe_strtoul(ptr noundef %15, ptr noundef nonnull %4) #13
  br i1 %16, label %17, label %34

17:                                               ; preds = %set_noreply_maybe.exit
  %18 = load i32, ptr %4, align 4, !tbaa !27
  %19 = icmp ult i32 %18, 8
  br i1 %19, label %34, label %20

20:                                               ; preds = %17
  %21 = icmp ugt i32 %18, 1000000000
  br i1 %21, label %34, label %22

22:                                               ; preds = %20
  %23 = zext nneg i32 %18 to i64
  %24 = shl nuw nsw i64 %23, 20
  %25 = call zeroext i1 @slabs_adjust_mem_limit(i64 noundef %24) #13
  br i1 %25, label %26, label %34

26:                                               ; preds = %22
  %27 = load i32, ptr getelementptr inbounds nuw (i8, ptr @settings, i64 32), align 8, !tbaa !77
  %28 = icmp sgt i32 %27, 0
  br i1 %28, label %29, label %34

29:                                               ; preds = %26
  %30 = load ptr, ptr @stderr, align 8, !tbaa !81
  %31 = load i32, ptr %4, align 4, !tbaa !27
  %32 = zext i32 %31 to i64
  %33 = call i32 (ptr, ptr, ...) @fprintf(ptr noundef %30, ptr noundef nonnull @.str.117, i64 noundef %32) #15
  br label %34

34:                                               ; preds = %22, %26, %29, %20, %17, %set_noreply_maybe.exit
  %.str.115.sink = phi ptr [ @.str.15, %set_noreply_maybe.exit ], [ @.str.115, %17 ], [ @.str.116, %20 ], [ @.str.98, %29 ], [ @.str.98, %26 ], [ @.str.118, %22 ]
  call void @out_string(ptr noundef nonnull %0, ptr noundef nonnull %.str.115.sink) #13
  call void @llvm.lifetime.end.p0(i64 4, ptr nonnull %4) #13
  ret void
}